target datalayout = "e-m:e-p270:32:32-p271:32:32-p272:64:64-i64:64-i128:128-f80:128-n8:16:32:64-S128"
target triple = "x86_64-pc-linux-gnu"

%struct._stat_tap_table_item_type = type { i32, %union.anon, %union.anon.0 }
%union.anon = type { ptr }
%union.anon.0 = type { ptr }
%struct._stat_tap_table_ui = type { i32, ptr, ptr, ptr, ptr, ptr, ptr, ptr, ptr, i64, ptr, i64, ptr, ptr, i32 }
%struct._stat_data_t = type { ptr, ptr }
%struct._GArray = type { ptr, i32 }
%struct._stat_tap_table = type { ptr, ptr, i32, i32, ptr }
%struct._wsp_info_value_t = type { i32, i8 }

@unknown_pt_idx = internal global i32 0, align 4
@unknown_sc_idx = internal global i32 0, align 4

; Function Attrs: null_pointer_is_valid sspstrong uwtable
define internal i32 @wsp_stat_packet(ptr noundef %0, ptr noundef %1, ptr noundef %2, ptr noundef %3, i32 noundef %4) #1 {
  %6 = alloca ptr, align 8
  %7 = alloca ptr, align 8
  %8 = alloca ptr, align 8
  %9 = alloca ptr, align 8
  %10 = alloca i32, align 4
  %11 = alloca ptr, align 8
  %12 = alloca ptr, align 8
  %13 = alloca ptr, align 8
  %14 = alloca ptr, align 8
  %15 = alloca i32, align 4
  %16 = alloca ptr, align 8
  %17 = alloca i8, align 1
  store ptr %0, ptr %6, align 8
  store ptr %1, ptr %7, align 8
  store ptr %2, ptr %8, align 8
  store ptr %3, ptr %9, align 8
  store i32 %4, ptr %10, align 4
  call void @llvm.lifetime.start.p0(i64 8, ptr %11) #8
  %18 = load ptr, ptr %6, align 8
  store ptr %18, ptr %11, align 8
  call void @llvm.lifetime.start.p0(i64 8, ptr %12) #8
  %19 = load ptr, ptr %9, align 8
  store ptr %19, ptr %12, align 8
  call void @llvm.lifetime.start.p0(i64 8, ptr %13) #8
  call void @llvm.lifetime.start.p0(i64 8, ptr %14) #8
  call void @llvm.lifetime.start.p0(i64 4, ptr %15) #8
  call void @llvm.lifetime.start.p0(i64 8, ptr %16) #8
  call void @llvm.lifetime.start.p0(i64 1, ptr %17) #8
  %20 = load ptr, ptr %11, align 8
  %21 = getelementptr inbounds nuw %struct._stat_data_t, ptr %20, i32 0, i32 0
  %22 = load ptr, ptr %21, align 8
  %23 = getelementptr inbounds nuw %struct._stat_tap_table_ui, ptr %22, i32 0, i32 13
  %24 = load ptr, ptr %23, align 8
  %25 = getelementptr inbounds nuw %struct._GArray, ptr %24, i32 0, i32 0
  %26 = load ptr, ptr %25, align 8
  %27 = getelementptr ptr, ptr %26, i64 0
  %28 = load ptr, ptr %27, align 8
  store ptr %28, ptr %13, align 8
  %29 = load ptr, ptr %11, align 8
  %30 = getelementptr inbounds nuw %struct._stat_data_t, ptr %29, i32 0, i32 0
  %31 = load ptr, ptr %30, align 8
  %32 = getelementptr inbounds nuw %struct._stat_tap_table_ui, ptr %31, i32 0, i32 13
  %33 = load ptr, ptr %32, align 8
  %34 = getelementptr inbounds nuw %struct._GArray, ptr %33, i32 0, i32 0
  %35 = load ptr, ptr %34, align 8
  %36 = getelementptr ptr, ptr %35, i64 1
  %37 = load ptr, ptr %36, align 8
  store ptr %37, ptr %14, align 8
  store i8 0, ptr %17, align 1
  store i32 0, ptr %15, align 4
  br label %38

38:                                               ; preds = %58, %5
  %39 = load i32, ptr %15, align 4
  %40 = load ptr, ptr %13, align 8
  %41 = getelementptr inbounds nuw %struct._stat_tap_table, ptr %40, i32 0, i32 3
  %42 = load i32, ptr %41, align 4
  %43 = icmp ult i32 %39, %42
  br i1 %43, label %44, label %61

44:                                               ; preds = %38
  %45 = load ptr, ptr %13, align 8
  %46 = load i32, ptr %15, align 4
  %47 = call ptr @stat_tap_get_field_data(ptr noundef %45, i32 noundef %46, i32 noundef 0)
  store ptr %47, ptr %16, align 8
  %48 = load ptr, ptr %12, align 8
  %49 = getelementptr inbounds nuw %struct._wsp_info_value_t, ptr %48, i32 0, i32 1
  %50 = load i8, ptr %49, align 4
  %51 = zext i8 %50 to i32
  %52 = load ptr, ptr %16, align 8
  %53 = getelementptr inbounds nuw %struct._stat_tap_table_item_type, ptr %52, i32 0, i32 2
  %54 = load i32, ptr %53, align 8
  %55 = icmp eq i32 %51, %54
  br i1 %55, label %56, label %57

56:                                               ; preds = %44
  store i8 1, ptr %17, align 1
  br label %61

57:                                               ; preds = %44
  br label %58

58:                                               ; preds = %57
  %59 = load i32, ptr %15, align 4
  %60 = add i32 %59, 1
  store i32 %60, ptr %15, align 4
  br label %38, !llvm.loop !14

61:                                               ; preds = %56, %38
  %62 = load i8, ptr %17, align 1, !range !6, !noundef !7
  %63 = trunc i8 %62 to i1
  br i1 %63, label %66, label %64

64:                                               ; preds = %61
  %65 = load i32, ptr @unknown_pt_idx, align 4
  store i32 %65, ptr %15, align 4
  br label %66

66:                                               ; preds = %64, %61
  %67 = load ptr, ptr %13, align 8
  %68 = load i32, ptr %15, align 4
  %69 = call ptr @stat_tap_get_field_data(ptr noundef %67, i32 noundef %68, i32 noundef 1)
  store ptr %69, ptr %16, align 8
  %70 = load ptr, ptr %16, align 8
  %71 = getelementptr inbounds nuw %struct._stat_tap_table_item_type, ptr %70, i32 0, i32 1
  %72 = load i32, ptr %71, align 8
  %73 = add i32 %72, 1
  store i32 %73, ptr %71, align 8
  %74 = load ptr, ptr %13, align 8
  %75 = load i32, ptr %15, align 4
  %76 = load ptr, ptr %16, align 8
  call void @stat_tap_set_field_data(ptr noundef %74, i32 noundef %75, i32 noundef 1, ptr noundef %76)
  %77 = load ptr, ptr %12, align 8
  %78 = getelementptr inbounds nuw %struct._wsp_info_value_t, ptr %77, i32 0, i32 0
  %79 = load i32, ptr %78, align 4
  %80 = icmp ne i32 %79, 0
  br i1 %80, label %81, label %120

81:                                               ; preds = %66
  store i8 0, ptr %17, align 1
  store i32 0, ptr %15, align 4
  br label %82

82:                                               ; preds = %101, %81
  %83 = load i32, ptr %15, align 4
  %84 = load ptr, ptr %14, align 8
  %85 = getelementptr inbounds nuw %struct._stat_tap_table, ptr %84, i32 0, i32 3
  %86 = load i32, ptr %85, align 4
  %87 = icmp ult i32 %83, %86
  br i1 %87, label %88, label %104

88:                                               ; preds = %82
  %89 = load ptr, ptr %14, align 8
  %90 = load i32, ptr %15, align 4
  %91 = call ptr @stat_tap_get_field_data(ptr noundef %89, i32 noundef %90, i32 noundef 0)
  store ptr %91, ptr %16, align 8
  %92 = load ptr, ptr %12, align 8
  %93 = getelementptr inbounds nuw %struct._wsp_info_value_t, ptr %92, i32 0, i32 0
  %94 = load i32, ptr %93, align 4
  %95 = load ptr, ptr %16, align 8
  %96 = getelementptr inbounds nuw %struct._stat_tap_table_item_type, ptr %95, i32 0, i32 2
  %97 = load i32, ptr %96, align 8
  %98 = icmp eq i32 %94, %97
  br i1 %98, label %99, label %100

99:                                               ; preds = %88
  store i8 1, ptr %17, align 1
  br label %104

100:                                              ; preds = %88
  br label %101

101:                                              ; preds = %100
  %102 = load i32, ptr %15, align 4
  %103 = add i32 %102, 1
  store i32 %103, ptr %15, align 4
  br label %82, !llvm.loop !15

104:                                              ; preds = %99, %82
  %105 = load i8, ptr %17, align 1, !range !6, !noundef !7
  %106 = trunc i8 %105 to i1
  br i1 %106, label %109, label %107

107:                                              ; preds = %104
  %108 = load i32, ptr @unknown_sc_idx, align 4
  store i32 %108, ptr %15, align 4
  br label %109

109:                                              ; preds = %107, %104
  %110 = load ptr, ptr %14, align 8
  %111 = load i32, ptr %15, align 4
  %112 = call ptr @stat_tap_get_field_data(ptr noundef %110, i32 noundef %111, i32 noundef 1)
  store ptr %112, ptr %16, align 8
  %113 = load ptr, ptr %16, align 8
  %114 = getelementptr inbounds nuw %struct._stat_tap_table_item_type, ptr %113, i32 0, i32 1
  %115 = load i32, ptr %114, align 8
  %116 = add i32 %115, 1
  store i32 %116, ptr %114, align 8
  %117 = load ptr, ptr %14, align 8
  %118 = load i32, ptr %15, align 4
  %119 = load ptr, ptr %16, align 8
  call void @stat_tap_set_field_data(ptr noundef %117, i32 noundef %118, i32 noundef 1, ptr noundef %119)
  br label %120

120:                                              ; preds = %109, %66
  %121 = load i8, ptr %17, align 1, !range !6, !noundef !7
  %122 = trunc i8 %121 to i1
  %123 = select i1 %122, i32 1, i32 0
  call void @llvm.lifetime.end.p0(i64 1, ptr %17) #8
  call void @llvm.lifetime.end.p0(i64 8, ptr %16) #8
  call void @llvm.lifetime.end.p0(i64 4, ptr %15) #8
  call void @llvm.lifetime.end.p0(i64 8, ptr %14) #8
  call void @llvm.lifetime.end.p0(i64 8, ptr %13) #8
  call void @llvm.lifetime.end.p0(i64 8, ptr %12) #8
  call void @llvm.lifetime.end.p0(i64 8, ptr %11) #8
  ret i32 %123
}