; Function Attrs: null_pointer_is_valid sspstrong uwtable
define internal range(i32 0, 2) i32 @wsp_stat_packet(ptr noundef readonly captures(none) %0, ptr readnone captures(none) %1, ptr readnone captures(none) %2, ptr noundef readonly captures(none) %3, i32 %4) #1 {
  %6 = load ptr, ptr %0, align 8
  %7 = getelementptr inbounds nuw i8, ptr %6, i64 104
  %8 = load ptr, ptr %7, align 8
  %9 = load ptr, ptr %8, align 8
  %10 = load ptr, ptr %9, align 8
  %11 = getelementptr i8, ptr %9, i64 8
  %12 = load ptr, ptr %11, align 8
  %13 = getelementptr inbounds nuw i8, ptr %10, i64 20
  %14 = load i32, ptr %13, align 4
  %.not50 = icmp eq i32 %14, 0
  br i1 %.not50, label %._crit_edge, label %.lr.ph

.lr.ph:                                           ; preds = %5
  %15 = getelementptr inbounds nuw i8, ptr %3, i64 4
  br label %16

16:                                               ; preds = %.lr.ph, %23
  %.03337 = phi i32 [ 0, %.lr.ph ], [ %24, %23 ]
  %17 = tail call ptr @stat_tap_get_field_data(ptr noundef %10, i32 noundef %.03337, i32 noundef 0)
  %18 = load i8, ptr %15, align 4
  %19 = zext i8 %18 to i32
  %20 = getelementptr inbounds nuw i8, ptr %17, i64 16
  %21 = load i32, ptr %20, align 8
  %22 = icmp eq i32 %21, %19
  br i1 %22, label %._crit_edge, label %23

23:                                               ; preds = %16
  %24 = add nuw i32 %.03337, 1
  %25 = load i32, ptr %13, align 4
  %26 = icmp ult i32 %24, %25
  br i1 %26, label %16, label %._crit_edge, !llvm.loop !12

._crit_edge:                                      ; preds = %23, %16, %5
  %.033.lcssa = phi i32 [ 0, %5 ], [ %.03337, %16 ], [ %24, %23 ]
  %.0 = phi i8 [ 0, %5 ], [ 1, %16 ], [ 0, %23 ]
  %27 = trunc nuw i8 %.0 to i1
  %.b = load i1, ptr @unknown_pt_idx, align 4
  %28 = select i1 %.b, i32 49, i32 0
  %spec.select = select i1 %27, i32 %.033.lcssa, i32 %28
  %29 = tail call ptr @stat_tap_get_field_data(ptr noundef %10, i32 noundef %spec.select, i32 noundef 1)
  %30 = getelementptr inbounds nuw i8, ptr %29, i64 8
  %31 = load i32, ptr %30, align 8
  %32 = add i32 %31, 1
  store i32 %32, ptr %30, align 8
  tail call void @stat_tap_set_field_data(ptr noundef %10, i32 noundef %spec.select, i32 noundef 1, ptr noundef %29)
  %33 = load i32, ptr %3, align 4
  %.not = icmp eq i32 %33, 0
  br i1 %.not, label %51, label %.preheader

.preheader:                                       ; preds = %._crit_edge
  %34 = getelementptr inbounds nuw i8, ptr %12, i64 20
  %35 = load i32, ptr %34, align 4
  %.not51 = icmp eq i32 %35, 0
  br i1 %.not51, label %._crit_edge44, label %.lr.ph43

.lr.ph43:                                         ; preds = %.preheader, %41
  %.23542 = phi i32 [ %42, %41 ], [ 0, %.preheader ]
  %36 = tail call ptr @stat_tap_get_field_data(ptr noundef %12, i32 noundef %.23542, i32 noundef 0)
  %37 = load i32, ptr %3, align 4
  %38 = getelementptr inbounds nuw i8, ptr %36, i64 16
  %39 = load i32, ptr %38, align 8
  %40 = icmp eq i32 %37, %39
  br i1 %40, label %._crit_edge44, label %41

41:                                               ; preds = %.lr.ph43
  %42 = add nuw i32 %.23542, 1
  %43 = load i32, ptr %34, align 4
  %44 = icmp ult i32 %42, %43
  br i1 %44, label %.lr.ph43, label %._crit_edge44, !llvm.loop !13

._crit_edge44:                                    ; preds = %41, %.lr.ph43, %.preheader
  %.235.lcssa = phi i32 [ 0, %.preheader ], [ %.23542, %.lr.ph43 ], [ %42, %41 ]
  %.2 = phi i8 [ 0, %.preheader ], [ 1, %.lr.ph43 ], [ 0, %41 ]
  %45 = trunc nuw i8 %.2 to i1
  %.b52 = load i1, ptr @unknown_sc_idx, align 4
  %46 = select i1 %.b52, i32 40, i32 0
  %spec.select36 = select i1 %45, i32 %.235.lcssa, i32 %46
  %47 = tail call ptr @stat_tap_get_field_data(ptr noundef %12, i32 noundef %spec.select36, i32 noundef 1)
  %48 = getelementptr inbounds nuw i8, ptr %47, i64 8
  %49 = load i32, ptr %48, align 8
  %50 = add i32 %49, 1
  store i32 %50, ptr %48, align 8
  tail call void @stat_tap_set_field_data(ptr noundef %12, i32 noundef %spec.select36, i32 noundef 1, ptr noundef %47)
  br label %51

51:                                               ; preds = %._crit_edge44, %._crit_edge
  %.1 = phi i8 [ %.2, %._crit_edge44 ], [ %.0, %._crit_edge ]
  %52 = zext nneg i8 %.1 to i32
  ret i32 %52
}